target datalayout = "e-m:e-p270:32:32-p271:32:32-p272:64:64-i64:64-i128:128-f80:128-n8:16:32:64-S128"
target triple = "x86_64-pc-linux-gnu"

%union.LWLockPadded = type { %struct.LWLock, [112 x i8] }
%struct.LWLock = type { i16, %struct.pg_atomic_uint32, %struct.proclist_head }
%struct.pg_atomic_uint32 = type { i32 }
%struct.proclist_head = type { i32, i32 }
%struct.MultiXactStateData = type { i32, i32, i8, i32, i32, i32, i8, i32, i32, i32, i32, i32, %struct.ConditionVariable, [0 x i32] }
%struct.ConditionVariable = type { i8, %struct.proclist_head }

@MainLWLockArray = external global ptr, align 8
@MultiXactState = internal global ptr null, align 8

; Function Attrs: nounwind uwtable
define internal zeroext i1 @MultiXactOffsetPrecedes(i32 noundef %0, i32 noundef %1) #0 {
  %3 = alloca i32, align 4
  %4 = alloca i32, align 4
  %5 = alloca i32, align 4
  store i32 %0, ptr %3, align 4
  store i32 %1, ptr %4, align 4
  call void @llvm.lifetime.start.p0(i64 4, ptr %5) #9
  %6 = load i32, ptr %3, align 4
  %7 = load i32, ptr %4, align 4
  %8 = sub i32 %6, %7
  store i32 %8, ptr %5, align 4
  %9 = load i32, ptr %5, align 4
  %10 = icmp slt i32 %9, 0
  call void @llvm.lifetime.end.p0(i64 4, ptr %5) #9
  ret i1 %10
}

; Function Attrs: nounwind uwtable
define dso_local zeroext i1 @MultiXactIdPrecedes(i32 noundef %0, i32 noundef %1) #0 {
  %3 = alloca i32, align 4
  %4 = alloca i32, align 4
  %5 = alloca i32, align 4
  store i32 %0, ptr %3, align 4
  store i32 %1, ptr %4, align 4
  call void @llvm.lifetime.start.p0(i64 4, ptr %5) #9
  %6 = load i32, ptr %3, align 4
  %7 = load i32, ptr %4, align 4
  %8 = sub i32 %6, %7
  store i32 %8, ptr %5, align 4
  %9 = load i32, ptr %5, align 4
  %10 = icmp slt i32 %9, 0
  call void @llvm.lifetime.end.p0(i64 4, ptr %5) #9
  ret i1 %10
}

; Function Attrs: nounwind uwtable
define dso_local void @MultiXactAdvanceNextMXact(i32 noundef %0, i32 noundef %1) #0 {
  %3 = alloca i32, align 4
  %4 = alloca i32, align 4
  store i32 %0, ptr %3, align 4
  store i32 %1, ptr %4, align 4
  %5 = load ptr, ptr @MainLWLockArray, align 8
  %6 = getelementptr inbounds %union.LWLockPadded, ptr %5, i64 13
  %7 = call zeroext i1 @LWLockAcquire(ptr noundef %6, i32 noundef 0)
  %8 = load ptr, ptr @MultiXactState, align 8
  %9 = getelementptr inbounds nuw %struct.MultiXactStateData, ptr %8, i32 0, i32 0
  %10 = load i32, ptr %9, align 4
  %11 = load i32, ptr %3, align 4
  %12 = call zeroext i1 @MultiXactIdPrecedes(i32 noundef %10, i32 noundef %11)
  br i1 %12, label %13, label %17

13:                                               ; preds = %2
  %14 = load i32, ptr %3, align 4
  %15 = load ptr, ptr @MultiXactState, align 8
  %16 = getelementptr inbounds nuw %struct.MultiXactStateData, ptr %15, i32 0, i32 0
  store i32 %14, ptr %16, align 4
  br label %17

17:                                               ; preds = %13, %2
  %18 = load ptr, ptr @MultiXactState, align 8
  %19 = getelementptr inbounds nuw %struct.MultiXactStateData, ptr %18, i32 0, i32 1
  %20 = load i32, ptr %19, align 4
  %21 = load i32, ptr %4, align 4
  %22 = call zeroext i1 @MultiXactOffsetPrecedes(i32 noundef %20, i32 noundef %21)
  br i1 %22, label %23, label %27

23:                                               ; preds = %17
  %24 = load i32, ptr %4, align 4
  %25 = load ptr, ptr @MultiXactState, align 8
  %26 = getelementptr inbounds nuw %struct.MultiXactStateData, ptr %25, i32 0, i32 1
  store i32 %24, ptr %26, align 4
  br label %27

27:                                               ; preds = %23, %17
  %28 = load ptr, ptr @MainLWLockArray, align 8
  %29 = getelementptr inbounds %union.LWLockPadded, ptr %28, i64 13
  call void @LWLockRelease(ptr noundef %29)
  ret void
}