; Function Attrs: nounwind uwtable
define dso_local void @MultiXactAdvanceNextMXact(i32 noundef %0, i32 noundef %1) local_unnamed_addr #0 {
  %3 = load ptr, ptr @MainLWLockArray, align 8
  %4 = getelementptr inbounds nuw i8, ptr %3, i64 1664
  %5 = tail call zeroext i1 @LWLockAcquire(ptr noundef nonnull %4, i32 noundef 0) #13
  %6 = load ptr, ptr @MultiXactState, align 8
  %7 = load i32, ptr %6, align 4
  %8 = sub i32 %7, %0
  %9 = icmp slt i32 %8, 0
  br i1 %9, label %10, label %11

10:                                               ; preds = %2
  store i32 %0, ptr %6, align 4
  br label %11

11:                                               ; preds = %10, %2
  %12 = getelementptr inbounds nuw i8, ptr %6, i64 4
  %13 = load i32, ptr %12, align 4
  %14 = sub i32 %13, %1
  %15 = icmp slt i32 %14, 0
  br i1 %15, label %16, label %17

16:                                               ; preds = %11
  store i32 %1, ptr %12, align 4
  br label %17

17:                                               ; preds = %16, %11
  %18 = load ptr, ptr @MainLWLockArray, align 8
  %19 = getelementptr inbounds nuw i8, ptr %18, i64 1664
  tail call void @LWLockRelease(ptr noundef nonnull %19) #13
  ret void
}